target datalayout = "e-m:e-p270:32:32-p271:32:32-p272:64:64-i64:64-i128:128-f80:128-n8:16:32:64-S128"
target triple = "x86_64-pc-linux-gnu"

; Function Attrs: nounwind uwtable
define internal i32 @lv_text_utf8_next(ptr noundef %0, ptr noundef %1) #0 {
  %3 = alloca i32, align 4
  %4 = alloca ptr, align 8
  %5 = alloca ptr, align 8
  %6 = alloca i32, align 4
  %7 = alloca i32, align 4
  %8 = alloca i32, align 4
  store ptr %0, ptr %4, align 8, !tbaa !3
  store ptr %1, ptr %5, align 8, !tbaa !3
  call void @llvm.lifetime.start.p0(i64 4, ptr %6) #5
  store i32 0, ptr %6, align 4, !tbaa !8
  call void @llvm.lifetime.start.p0(i64 4, ptr %7) #5
  store i32 0, ptr %7, align 4, !tbaa !8
  %9 = load ptr, ptr %5, align 8, !tbaa !3
  %10 = icmp eq ptr %9, null
  br i1 %10, label %11, label %12

11:                                               ; preds = %2
  store ptr %7, ptr %5, align 8, !tbaa !3
  br label %12

12:                                               ; preds = %11, %2
  %13 = load ptr, ptr %4, align 8, !tbaa !3
  %14 = load ptr, ptr %5, align 8, !tbaa !3
  %15 = load i32, ptr %14, align 4, !tbaa !8
  %16 = zext i32 %15 to i64
  %17 = getelementptr inbounds nuw i8, ptr %13, i64 %16
  %18 = load i8, ptr %17, align 1, !tbaa !7
  %19 = sext i8 %18 to i32
  %20 = and i32 %19, 128
  %21 = icmp eq i32 %20, 0
  br i1 %21, label %22, label %33

22:                                               ; preds = %12
  %23 = load ptr, ptr %4, align 8, !tbaa !3
  %24 = load ptr, ptr %5, align 8, !tbaa !3
  %25 = load i32, ptr %24, align 4, !tbaa !8
  %26 = zext i32 %25 to i64
  %27 = getelementptr inbounds nuw i8, ptr %23, i64 %26
  %28 = load i8, ptr %27, align 1, !tbaa !7
  %29 = sext i8 %28 to i32
  store i32 %29, ptr %6, align 4, !tbaa !8
  %30 = load ptr, ptr %5, align 8, !tbaa !3
  %31 = load i32, ptr %30, align 4, !tbaa !8
  %32 = add i32 %31, 1
  store i32 %32, ptr %30, align 4, !tbaa !8
  br label %256

33:                                               ; preds = %12
  %34 = load ptr, ptr %4, align 8, !tbaa !3
  %35 = load ptr, ptr %5, align 8, !tbaa !3
  %36 = load i32, ptr %35, align 4, !tbaa !8
  %37 = zext i32 %36 to i64
  %38 = getelementptr inbounds nuw i8, ptr %34, i64 %37
  %39 = load i8, ptr %38, align 1, !tbaa !7
  %40 = sext i8 %39 to i32
  %41 = and i32 %40, 224
  %42 = icmp eq i32 %41, 192
  br i1 %42, label %43, label %80

43:                                               ; preds = %33
  %44 = load ptr, ptr %4, align 8, !tbaa !3
  %45 = load ptr, ptr %5, align 8, !tbaa !3
  %46 = load i32, ptr %45, align 4, !tbaa !8
  %47 = zext i32 %46 to i64
  %48 = getelementptr inbounds nuw i8, ptr %44, i64 %47
  %49 = load i8, ptr %48, align 1, !tbaa !7
  %50 = sext i8 %49 to i32
  %51 = and i32 %50, 31
  %52 = shl i32 %51, 6
  store i32 %52, ptr %6, align 4, !tbaa !8
  %53 = load ptr, ptr %5, align 8, !tbaa !3
  %54 = load i32, ptr %53, align 4, !tbaa !8
  %55 = add i32 %54, 1
  store i32 %55, ptr %53, align 4, !tbaa !8
  %56 = load ptr, ptr %4, align 8, !tbaa !3
  %57 = load ptr, ptr %5, align 8, !tbaa !3
  %58 = load i32, ptr %57, align 4, !tbaa !8
  %59 = zext i32 %58 to i64
  %60 = getelementptr inbounds nuw i8, ptr %56, i64 %59
  %61 = load i8, ptr %60, align 1, !tbaa !7
  %62 = sext i8 %61 to i32
  %63 = and i32 %62, 192
  %64 = icmp ne i32 %63, 128
  br i1 %64, label %65, label %66

65:                                               ; preds = %43
  store i32 0, ptr %3, align 4
  store i32 1, ptr %8, align 4
  br label %258

66:                                               ; preds = %43
  %67 = load ptr, ptr %4, align 8, !tbaa !3
  %68 = load ptr, ptr %5, align 8, !tbaa !3
  %69 = load i32, ptr %68, align 4, !tbaa !8
  %70 = zext i32 %69 to i64
  %71 = getelementptr inbounds nuw i8, ptr %67, i64 %70
  %72 = load i8, ptr %71, align 1, !tbaa !7
  %73 = sext i8 %72 to i32
  %74 = and i32 %73, 63
  %75 = load i32, ptr %6, align 4, !tbaa !8
  %76 = add i32 %75, %74
  store i32 %76, ptr %6, align 4, !tbaa !8
  %77 = load ptr, ptr %5, align 8, !tbaa !3
  %78 = load i32, ptr %77, align 4, !tbaa !8
  %79 = add i32 %78, 1
  store i32 %79, ptr %77, align 4, !tbaa !8
  br label %255

80:                                               ; preds = %33
  %81 = load ptr, ptr %4, align 8, !tbaa !3
  %82 = load ptr, ptr %5, align 8, !tbaa !3
  %83 = load i32, ptr %82, align 4, !tbaa !8
  %84 = zext i32 %83 to i64
  %85 = getelementptr inbounds nuw i8, ptr %81, i64 %84
  %86 = load i8, ptr %85, align 1, !tbaa !7
  %87 = sext i8 %86 to i32
  %88 = and i32 %87, 240
  %89 = icmp eq i32 %88, 224
  br i1 %89, label %90, label %152

90:                                               ; preds = %80
  %91 = load ptr, ptr %4, align 8, !tbaa !3
  %92 = load ptr, ptr %5, align 8, !tbaa !3
  %93 = load i32, ptr %92, align 4, !tbaa !8
  %94 = zext i32 %93 to i64
  %95 = getelementptr inbounds nuw i8, ptr %91, i64 %94
  %96 = load i8, ptr %95, align 1, !tbaa !7
  %97 = sext i8 %96 to i32
  %98 = and i32 %97, 15
  %99 = shl i32 %98, 12
  store i32 %99, ptr %6, align 4, !tbaa !8
  %100 = load ptr, ptr %5, align 8, !tbaa !3
  %101 = load i32, ptr %100, align 4, !tbaa !8
  %102 = add i32 %101, 1
  store i32 %102, ptr %100, align 4, !tbaa !8
  %103 = load ptr, ptr %4, align 8, !tbaa !3
  %104 = load ptr, ptr %5, align 8, !tbaa !3
  %105 = load i32, ptr %104, align 4, !tbaa !8
  %106 = zext i32 %105 to i64
  %107 = getelementptr inbounds nuw i8, ptr %103, i64 %106
  %108 = load i8, ptr %107, align 1, !tbaa !7
  %109 = sext i8 %108 to i32
  %110 = and i32 %109, 192
  %111 = icmp ne i32 %110, 128
  br i1 %111, label %112, label %113

112:                                              ; preds = %90
  store i32 0, ptr %3, align 4
  store i32 1, ptr %8, align 4
  br label %258

113:                                              ; preds = %90
  %114 = load ptr, ptr %4, align 8, !tbaa !3
  %115 = load ptr, ptr %5, align 8, !tbaa !3
  %116 = load i32, ptr %115, align 4, !tbaa !8
  %117 = zext i32 %116 to i64
  %118 = getelementptr inbounds nuw i8, ptr %114, i64 %117
  %119 = load i8, ptr %118, align 1, !tbaa !7
  %120 = sext i8 %119 to i32
  %121 = and i32 %120, 63
  %122 = shl i32 %121, 6
  %123 = load i32, ptr %6, align 4, !tbaa !8
  %124 = add i32 %123, %122
  store i32 %124, ptr %6, align 4, !tbaa !8
  %125 = load ptr, ptr %5, align 8, !tbaa !3
  %126 = load i32, ptr %125, align 4, !tbaa !8
  %127 = add i32 %126, 1
  store i32 %127, ptr %125, align 4, !tbaa !8
  %128 = load ptr, ptr %4, align 8, !tbaa !3
  %129 = load ptr, ptr %5, align 8, !tbaa !3
  %130 = load i32, ptr %129, align 4, !tbaa !8
  %131 = zext i32 %130 to i64
  %132 = getelementptr inbounds nuw i8, ptr %128, i64 %131
  %133 = load i8, ptr %132, align 1, !tbaa !7
  %134 = sext i8 %133 to i32
  %135 = and i32 %134, 192
  %136 = icmp ne i32 %135, 128
  br i1 %136, label %137, label %138

137:                                              ; preds = %113
  store i32 0, ptr %3, align 4
  store i32 1, ptr %8, align 4
  br label %258

138:                                              ; preds = %113
  %139 = load ptr, ptr %4, align 8, !tbaa !3
  %140 = load ptr, ptr %5, align 8, !tbaa !3
  %141 = load i32, ptr %140, align 4, !tbaa !8
  %142 = zext i32 %141 to i64
  %143 = getelementptr inbounds nuw i8, ptr %139, i64 %142
  %144 = load i8, ptr %143, align 1, !tbaa !7
  %145 = sext i8 %144 to i32
  %146 = and i32 %145, 63
  %147 = load i32, ptr %6, align 4, !tbaa !8
  %148 = add i32 %147, %146
  store i32 %148, ptr %6, align 4, !tbaa !8
  %149 = load ptr, ptr %5, align 8, !tbaa !3
  %150 = load i32, ptr %149, align 4, !tbaa !8
  %151 = add i32 %150, 1
  store i32 %151, ptr %149, align 4, !tbaa !8
  br label %254

152:                                              ; preds = %80
  %153 = load ptr, ptr %4, align 8, !tbaa !3
  %154 = load ptr, ptr %5, align 8, !tbaa !3
  %155 = load i32, ptr %154, align 4, !tbaa !8
  %156 = zext i32 %155 to i64
  %157 = getelementptr inbounds nuw i8, ptr %153, i64 %156
  %158 = load i8, ptr %157, align 1, !tbaa !7
  %159 = sext i8 %158 to i32
  %160 = and i32 %159, 248
  %161 = icmp eq i32 %160, 240
  br i1 %161, label %162, label %249

162:                                              ; preds = %152
  %163 = load ptr, ptr %4, align 8, !tbaa !3
  %164 = load ptr, ptr %5, align 8, !tbaa !3
  %165 = load i32, ptr %164, align 4, !tbaa !8
  %166 = zext i32 %165 to i64
  %167 = getelementptr inbounds nuw i8, ptr %163, i64 %166
  %168 = load i8, ptr %167, align 1, !tbaa !7
  %169 = sext i8 %168 to i32
  %170 = and i32 %169, 7
  %171 = shl i32 %170, 18
  store i32 %171, ptr %6, align 4, !tbaa !8
  %172 = load ptr, ptr %5, align 8, !tbaa !3
  %173 = load i32, ptr %172, align 4, !tbaa !8
  %174 = add i32 %173, 1
  store i32 %174, ptr %172, align 4, !tbaa !8
  %175 = load ptr, ptr %4, align 8, !tbaa !3
  %176 = load ptr, ptr %5, align 8, !tbaa !3
  %177 = load i32, ptr %176, align 4, !tbaa !8
  %178 = zext i32 %177 to i64
  %179 = getelementptr inbounds nuw i8, ptr %175, i64 %178
  %180 = load i8, ptr %179, align 1, !tbaa !7
  %181 = sext i8 %180 to i32
  %182 = and i32 %181, 192
  %183 = icmp ne i32 %182, 128
  br i1 %183, label %184, label %185

184:                                              ; preds = %162
  store i32 0, ptr %3, align 4
  store i32 1, ptr %8, align 4
  br label %258

185:                                              ; preds = %162
  %186 = load ptr, ptr %4, align 8, !tbaa !3
  %187 = load ptr, ptr %5, align 8, !tbaa !3
  %188 = load i32, ptr %187, align 4, !tbaa !8
  %189 = zext i32 %188 to i64
  %190 = getelementptr inbounds nuw i8, ptr %186, i64 %189
  %191 = load i8, ptr %190, align 1, !tbaa !7
  %192 = sext i8 %191 to i32
  %193 = and i32 %192, 63
  %194 = shl i32 %193, 12
  %195 = load i32, ptr %6, align 4, !tbaa !8
  %196 = add i32 %195, %194
  store i32 %196, ptr %6, align 4, !tbaa !8
  %197 = load ptr, ptr %5, align 8, !tbaa !3
  %198 = load i32, ptr %197, align 4, !tbaa !8
  %199 = add i32 %198, 1
  store i32 %199, ptr %197, align 4, !tbaa !8
  %200 = load ptr, ptr %4, align 8, !tbaa !3
  %201 = load ptr, ptr %5, align 8, !tbaa !3
  %202 = load i32, ptr %201, align 4, !tbaa !8
  %203 = zext i32 %202 to i64
  %204 = getelementptr inbounds nuw i8, ptr %200, i64 %203
  %205 = load i8, ptr %204, align 1, !tbaa !7
  %206 = sext i8 %205 to i32
  %207 = and i32 %206, 192
  %208 = icmp ne i32 %207, 128
  br i1 %208, label %209, label %210

209:                                              ; preds = %185
  store i32 0, ptr %3, align 4
  store i32 1, ptr %8, align 4
  br label %258

210:                                              ; preds = %185
  %211 = load ptr, ptr %4, align 8, !tbaa !3
  %212 = load ptr, ptr %5, align 8, !tbaa !3
  %213 = load i32, ptr %212, align 4, !tbaa !8
  %214 = zext i32 %213 to i64
  %215 = getelementptr inbounds nuw i8, ptr %211, i64 %214
  %216 = load i8, ptr %215, align 1, !tbaa !7
  %217 = sext i8 %216 to i32
  %218 = and i32 %217, 63
  %219 = shl i32 %218, 6
  %220 = load i32, ptr %6, align 4, !tbaa !8
  %221 = add i32 %220, %219
  store i32 %221, ptr %6, align 4, !tbaa !8
  %222 = load ptr, ptr %5, align 8, !tbaa !3
  %223 = load i32, ptr %222, align 4, !tbaa !8
  %224 = add i32 %223, 1
  store i32 %224, ptr %222, align 4, !tbaa !8
  %225 = load ptr, ptr %4, align 8, !tbaa !3
  %226 = load ptr, ptr %5, align 8, !tbaa !3
  %227 = load i32, ptr %226, align 4, !tbaa !8
  %228 = zext i32 %227 to i64
  %229 = getelementptr inbounds nuw i8, ptr %225, i64 %228
  %230 = load i8, ptr %229, align 1, !tbaa !7
  %231 = sext i8 %230 to i32
  %232 = and i32 %231, 192
  %233 = icmp ne i32 %232, 128
  br i1 %233, label %234, label %235

234:                                              ; preds = %210
  store i32 0, ptr %3, align 4
  store i32 1, ptr %8, align 4
  br label %258

235:                                              ; preds = %210
  %236 = load ptr, ptr %4, align 8, !tbaa !3
  %237 = load ptr, ptr %5, align 8, !tbaa !3
  %238 = load i32, ptr %237, align 4, !tbaa !8
  %239 = zext i32 %238 to i64
  %240 = getelementptr inbounds nuw i8, ptr %236, i64 %239
  %241 = load i8, ptr %240, align 1, !tbaa !7
  %242 = sext i8 %241 to i32
  %243 = and i32 %242, 63
  %244 = load i32, ptr %6, align 4, !tbaa !8
  %245 = add i32 %244, %243
  store i32 %245, ptr %6, align 4, !tbaa !8
  %246 = load ptr, ptr %5, align 8, !tbaa !3
  %247 = load i32, ptr %246, align 4, !tbaa !8
  %248 = add i32 %247, 1
  store i32 %248, ptr %246, align 4, !tbaa !8
  br label %253

249:                                              ; preds = %152
  %250 = load ptr, ptr %5, align 8, !tbaa !3
  %251 = load i32, ptr %250, align 4, !tbaa !8
  %252 = add i32 %251, 1
  store i32 %252, ptr %250, align 4, !tbaa !8
  br label %253

253:                                              ; preds = %249, %235
  br label %254

254:                                              ; preds = %253, %138
  br label %255

255:                                              ; preds = %254, %66
  br label %256

256:                                              ; preds = %255, %22
  %257 = load i32, ptr %6, align 4, !tbaa !8
  store i32 %257, ptr %3, align 4
  store i32 1, ptr %8, align 4
  br label %258

258:                                              ; preds = %256, %234, %209, %184, %137, %112, %65
  call void @llvm.lifetime.end.p0(i64 4, ptr %7) #5
  call void @llvm.lifetime.end.p0(i64 4, ptr %6) #5
  %259 = load i32, ptr %3, align 4
  ret i32 %259
}