; Function Attrs: mustprogress nofree norecurse nosync nounwind willreturn memory(argmem: readwrite) uwtable
define internal range(i32 0, 2097152) i32 @lv_text_utf8_next(ptr nocapture noundef readonly %0, ptr noundef %1) #3 {
  %3 = icmp eq ptr %1, null
  br i1 %3, label %.cont95, label %.cont95.thread

.cont95:                                          ; preds = %2
  %4 = load i8, ptr %0, align 1, !tbaa !3
  %5 = sext i8 %4 to i32
  %6 = and i32 %5, 128
  %7 = icmp eq i32 %6, 0
  br i1 %7, label %.cont92, label %15

.cont95.thread:                                   ; preds = %2
  %.else.val = load i32, ptr %1, align 4, !tbaa !6
  %8 = zext i32 %.else.val to i64
  %9 = getelementptr inbounds nuw i8, ptr %0, i64 %8
  %10 = load i8, ptr %9, align 1, !tbaa !3
  %11 = sext i8 %10 to i32
  %12 = and i32 %11, 128
  %13 = icmp eq i32 %12, 0
  br i1 %13, label %.else94, label %.thread97

.else94:                                          ; preds = %.cont95.thread
  %14 = add i32 %.else.val, 1
  br label %.cont92.sink.split

15:                                               ; preds = %.cont95
  %16 = and i32 %5, 224
  %17 = icmp eq i32 %16, 192
  br i1 %17, label %.cont89, label %35

.thread97:                                        ; preds = %.cont95.thread
  %18 = and i32 %11, 224
  %19 = icmp eq i32 %18, 192
  br i1 %19, label %.else91, label %.thread99

.else91:                                          ; preds = %.thread97
  %20 = add i32 %.else.val, 1
  store i32 %20, ptr %1, align 4, !tbaa !6
  %21 = zext i32 %20 to i64
  %22 = add i32 %.else.val, 2
  br label %.cont89

.cont89:                                          ; preds = %15, %.else91
  %23 = phi i64 [ %21, %.else91 ], [ 1, %15 ]
  %24 = phi i32 [ %11, %.else91 ], [ %5, %15 ]
  %25 = phi i32 [ %22, %.else91 ], [ 2, %15 ]
  %26 = getelementptr inbounds nuw i8, ptr %0, i64 %23
  %27 = load i8, ptr %26, align 1, !tbaa !3
  %28 = zext i8 %27 to i32
  %29 = and i32 %28, 192
  %.not64 = icmp eq i32 %29, 128
  br i1 %.not64, label %30, label %.cont92

30:                                               ; preds = %.cont89
  %31 = shl nsw i32 %24, 6
  %32 = and i32 %31, 1984
  %33 = and i32 %28, 63
  %34 = or disjoint i32 %33, %32
  br i1 %3, label %.cont92, label %.cont92.sink.split

35:                                               ; preds = %15
  %36 = and i32 %5, 240
  %37 = icmp eq i32 %36, 224
  br i1 %37, label %.cont83, label %69

.thread99:                                        ; preds = %.thread97
  %38 = and i32 %11, 240
  %39 = icmp eq i32 %38, 224
  br i1 %39, label %.thread100, label %.thread103

.thread100:                                       ; preds = %.thread99
  %40 = add i32 %.else.val, 1
  store i32 %40, ptr %1, align 4, !tbaa !6
  %41 = zext i32 %40 to i64
  %42 = getelementptr inbounds nuw i8, ptr %0, i64 %41
  %43 = load i8, ptr %42, align 1, !tbaa !3
  %44 = sext i8 %43 to i32
  %45 = and i32 %44, 192
  %.not62101 = icmp eq i32 %45, 128
  br i1 %.not62101, label %.else82, label %.cont92

.cont83:                                          ; preds = %35
  %46 = getelementptr inbounds nuw i8, ptr %0, i64 1
  %47 = load i8, ptr %46, align 1, !tbaa !3
  %48 = sext i8 %47 to i32
  %49 = and i32 %48, 192
  %.not62 = icmp eq i32 %49, 128
  br i1 %.not62, label %.cont80, label %.cont92

.else82:                                          ; preds = %.thread100
  %50 = add i32 %.else.val, 2
  store i32 %50, ptr %1, align 4, !tbaa !6
  %51 = zext i32 %50 to i64
  %52 = add i32 %.else.val, 3
  br label %.cont80

.cont80:                                          ; preds = %.cont83, %.else82
  %53 = phi i64 [ %51, %.else82 ], [ 2, %.cont83 ]
  %54 = phi i32 [ %52, %.else82 ], [ 3, %.cont83 ]
  %55 = phi i32 [ %11, %.else82 ], [ %5, %.cont83 ]
  %56 = phi i32 [ %44, %.else82 ], [ %48, %.cont83 ]
  %57 = getelementptr inbounds nuw i8, ptr %0, i64 %53
  %58 = load i8, ptr %57, align 1, !tbaa !3
  %59 = zext i8 %58 to i32
  %60 = and i32 %59, 192
  %.not63 = icmp eq i32 %60, 128
  br i1 %.not63, label %61, label %.cont92

61:                                               ; preds = %.cont80
  %62 = shl nsw i32 %55, 12
  %63 = and i32 %62, 61440
  %64 = shl nsw i32 %56, 6
  %65 = and i32 %64, 4032
  %66 = or disjoint i32 %65, %63
  %67 = and i32 %59, 63
  %68 = or disjoint i32 %66, %67
  br i1 %3, label %.cont92, label %.cont92.sink.split

69:                                               ; preds = %35
  %70 = and i32 %5, 248
  %71 = icmp eq i32 %70, 240
  br i1 %71, label %.cont74, label %.cont92

.thread103:                                       ; preds = %.thread99
  %72 = and i32 %11, 248
  %73 = icmp eq i32 %72, 240
  %74 = add i32 %.else.val, 1
  store i32 %74, ptr %1, align 4, !tbaa !6
  br i1 %73, label %.thread104, label %.cont92

.thread104:                                       ; preds = %.thread103
  %75 = zext i32 %74 to i64
  %76 = getelementptr inbounds nuw i8, ptr %0, i64 %75
  %77 = load i8, ptr %76, align 1, !tbaa !3
  %78 = sext i8 %77 to i32
  %79 = and i32 %78, 192
  %.not105 = icmp eq i32 %79, 128
  br i1 %.not105, label %.cont71.thread, label %.cont92

.cont74:                                          ; preds = %69
  %80 = getelementptr inbounds nuw i8, ptr %0, i64 1
  %81 = load i8, ptr %80, align 1, !tbaa !3
  %82 = sext i8 %81 to i32
  %83 = and i32 %82, 192
  %.not = icmp eq i32 %83, 128
  br i1 %.not, label %.cont71, label %.cont92

.cont71:                                          ; preds = %.cont74
  %84 = getelementptr inbounds nuw i8, ptr %0, i64 2
  %85 = load i8, ptr %84, align 1, !tbaa !3
  %86 = sext i8 %85 to i32
  %87 = and i32 %86, 192
  %.not60 = icmp eq i32 %87, 128
  br i1 %.not60, label %.cont68, label %.cont92

.cont71.thread:                                   ; preds = %.thread104
  %88 = add i32 %.else.val, 2
  store i32 %88, ptr %1, align 4, !tbaa !6
  %89 = zext i32 %88 to i64
  %90 = getelementptr inbounds nuw i8, ptr %0, i64 %89
  %91 = load i8, ptr %90, align 1, !tbaa !3
  %92 = sext i8 %91 to i32
  %93 = and i32 %92, 192
  %.not60107 = icmp eq i32 %93, 128
  br i1 %.not60107, label %.else70, label %.cont92

.else70:                                          ; preds = %.cont71.thread
  %94 = add i32 %.else.val, 3
  store i32 %94, ptr %1, align 4, !tbaa !6
  %95 = zext i32 %94 to i64
  %96 = add i32 %.else.val, 4
  br label %.cont68

.cont68:                                          ; preds = %.cont71, %.else70
  %97 = phi i64 [ %95, %.else70 ], [ 3, %.cont71 ]
  %98 = phi i32 [ %11, %.else70 ], [ %5, %.cont71 ]
  %99 = phi i32 [ %96, %.else70 ], [ 4, %.cont71 ]
  %100 = phi i32 [ %78, %.else70 ], [ %82, %.cont71 ]
  %101 = phi i32 [ %92, %.else70 ], [ %86, %.cont71 ]
  %102 = getelementptr inbounds nuw i8, ptr %0, i64 %97
  %103 = load i8, ptr %102, align 1, !tbaa !3
  %104 = zext i8 %103 to i32
  %105 = and i32 %104, 192
  %.not61 = icmp eq i32 %105, 128
  br i1 %.not61, label %106, label %.cont92

106:                                              ; preds = %.cont68
  %107 = shl nsw i32 %98, 18
  %108 = and i32 %107, 1835008
  %109 = shl nsw i32 %100, 12
  %110 = and i32 %109, 258048
  %111 = or disjoint i32 %110, %108
  %112 = shl nsw i32 %101, 6
  %113 = and i32 %112, 4032
  %114 = or disjoint i32 %111, %113
  %115 = and i32 %104, 63
  %116 = or disjoint i32 %114, %115
  br i1 %3, label %.cont92, label %.cont92.sink.split

.cont92.sink.split:                               ; preds = %106, %61, %30, %.else94
  %.sink = phi i32 [ %14, %.else94 ], [ %25, %30 ], [ %54, %61 ], [ %99, %106 ]
  %.059.ph = phi i32 [ %11, %.else94 ], [ %34, %30 ], [ %68, %61 ], [ %116, %106 ]
  store i32 %.sink, ptr %1, align 4, !tbaa !6
  br label %.cont92

.cont92:                                          ; preds = %.cont92.sink.split, %.thread103, %69, %.cont95, %106, %.cont71.thread, %.thread104, %61, %.thread100, %30, %.cont68, %.cont71, %.cont74, %.cont80, %.cont83, %.cont89
  %.059 = phi i32 [ 0, %.cont89 ], [ 0, %.cont83 ], [ 0, %.cont80 ], [ 0, %.cont74 ], [ 0, %.cont71 ], [ 0, %.cont68 ], [ %34, %30 ], [ 0, %.thread100 ], [ %68, %61 ], [ 0, %.thread104 ], [ 0, %.cont71.thread ], [ %116, %106 ], [ %5, %.cont95 ], [ 0, %69 ], [ 0, %.thread103 ], [ %.059.ph, %.cont92.sink.split ]
  ret i32 %.059
}